target datalayout = "e-m:e-p270:32:32-p271:32:32-p272:64:64-i64:64-i128:128-f80:128-n8:16:32:64-S128"
target triple = "x86_64-pc-linux-gnu"

%struct._timelib_posix_trans_info = type { i32, %union.anon, i32 }
%union.anon = type { %struct.anon.1 }
%struct.anon.1 = type { i32, i32, i32 }

@month_lengths = internal constant [2 x [12 x i32]] [[12 x i32] [i32 31, i32 28, i32 31, i32 30, i32 31, i32 30, i32 31, i32 31, i32 30, i32 31, i32 30, i32 31], [12 x i32] [i32 31, i32 29, i32 31, i32 30, i32 31, i32 30, i32 31, i32 31, i32 30, i32 31, i32 30, i32 31]], align 16

; Function Attrs: nounwind uwtable
define internal i64 @calc_transition(ptr noundef %0, i64 noundef %1) #0 {
  %3 = alloca i64, align 8
  %4 = alloca ptr, align 8
  %5 = alloca i64, align 8
  %6 = alloca i32, align 4
  %7 = alloca i64, align 8
  %8 = alloca i32, align 4
  %9 = alloca i32, align 4
  %10 = alloca i32, align 4
  %11 = alloca i32, align 4
  %12 = alloca i32, align 4
  %13 = alloca i32, align 4
  %14 = alloca i32, align 4
  %15 = alloca i32, align 4
  %16 = alloca i64, align 8
  store ptr %0, ptr %4, align 8, !tbaa !18
  store i64 %1, ptr %5, align 8, !tbaa !29
  call void @llvm.lifetime.start.p0(i64 4, ptr %6) #5
  %17 = load i64, ptr %5, align 8, !tbaa !29
  %18 = srem i64 %17, 4
  %19 = icmp eq i64 %18, 0
  br i1 %19, label %20, label %30

20:                                               ; preds = %2
  %21 = load i64, ptr %5, align 8, !tbaa !29
  %22 = srem i64 %21, 100
  %23 = icmp ne i64 %22, 0
  br i1 %23, label %28, label %24

24:                                               ; preds = %20
  %25 = load i64, ptr %5, align 8, !tbaa !29
  %26 = srem i64 %25, 400
  %27 = icmp eq i64 %26, 0
  br label %28

28:                                               ; preds = %24, %20
  %29 = phi i1 [ true, %20 ], [ %27, %24 ]
  br label %30

30:                                               ; preds = %28, %2
  %31 = phi i1 [ false, %2 ], [ %29, %28 ]
  %32 = zext i1 %31 to i32
  store i32 %32, ptr %6, align 4, !tbaa !25
  %33 = load ptr, ptr %4, align 8, !tbaa !18
  %34 = getelementptr inbounds nuw %struct._timelib_posix_trans_info, ptr %33, i32 0, i32 0
  %35 = load i32, ptr %34, align 4, !tbaa !26
  switch i32 %35, label %179 [
    i32 1, label %36
    i32 2, label %55
    i32 3, label %61
  ]

36:                                               ; preds = %30
  call void @llvm.lifetime.start.p0(i64 8, ptr %7) #5
  %37 = load ptr, ptr %4, align 8, !tbaa !18
  %38 = getelementptr inbounds nuw %struct._timelib_posix_trans_info, ptr %37, i32 0, i32 1
  %39 = load i32, ptr %38, align 4, !tbaa !21
  %40 = sub i32 %39, 1
  %41 = sext i32 %40 to i64
  store i64 %41, ptr %7, align 8, !tbaa !29
  %42 = load i32, ptr %6, align 4, !tbaa !25
  %43 = icmp ne i32 %42, 0
  br i1 %43, label %44, label %52

44:                                               ; preds = %36
  %45 = load ptr, ptr %4, align 8, !tbaa !18
  %46 = getelementptr inbounds nuw %struct._timelib_posix_trans_info, ptr %45, i32 0, i32 1
  %47 = load i32, ptr %46, align 4, !tbaa !21
  %48 = icmp sge i32 %47, 60
  br i1 %48, label %49, label %52

49:                                               ; preds = %44
  %50 = load i64, ptr %7, align 8, !tbaa !29
  %51 = add i64 %50, 1
  store i64 %51, ptr %7, align 8, !tbaa !29
  br label %52

52:                                               ; preds = %49, %44, %36
  %53 = load i64, ptr %7, align 8, !tbaa !29
  %54 = mul i64 %53, 86400
  store i64 %54, ptr %3, align 8
  store i32 1, ptr %8, align 4
  call void @llvm.lifetime.end.p0(i64 8, ptr %7) #5
  br label %180

55:                                               ; preds = %30
  %56 = load ptr, ptr %4, align 8, !tbaa !18
  %57 = getelementptr inbounds nuw %struct._timelib_posix_trans_info, ptr %56, i32 0, i32 1
  %58 = load i32, ptr %57, align 4, !tbaa !21
  %59 = mul i32 %58, 86400
  %60 = sext i32 %59 to i64
  store i64 %60, ptr %3, align 8
  store i32 1, ptr %8, align 4
  br label %180

61:                                               ; preds = %30
  call void @llvm.lifetime.start.p0(i64 4, ptr %9) #5
  call void @llvm.lifetime.start.p0(i64 4, ptr %10) #5
  call void @llvm.lifetime.start.p0(i64 4, ptr %11) #5
  call void @llvm.lifetime.start.p0(i64 4, ptr %12) #5
  call void @llvm.lifetime.start.p0(i64 4, ptr %13) #5
  call void @llvm.lifetime.start.p0(i64 4, ptr %14) #5
  call void @llvm.lifetime.start.p0(i64 4, ptr %15) #5
  call void @llvm.lifetime.start.p0(i64 8, ptr %16) #5
  store i64 0, ptr %16, align 8, !tbaa !29
  %62 = load ptr, ptr %4, align 8, !tbaa !18
  %63 = getelementptr inbounds nuw %struct._timelib_posix_trans_info, ptr %62, i32 0, i32 1
  %64 = getelementptr inbounds nuw %struct.anon.1, ptr %63, i32 0, i32 0
  %65 = load i32, ptr %64, align 4, !tbaa !21
  %66 = add i32 %65, 9
  %67 = srem i32 %66, 12
  %68 = add i32 %67, 1
  store i32 %68, ptr %11, align 4, !tbaa !25
  %69 = load ptr, ptr %4, align 8, !tbaa !18
  %70 = getelementptr inbounds nuw %struct._timelib_posix_trans_info, ptr %69, i32 0, i32 1
  %71 = getelementptr inbounds nuw %struct.anon.1, ptr %70, i32 0, i32 0
  %72 = load i32, ptr %71, align 4, !tbaa !21
  %73 = icmp sle i32 %72, 2
  br i1 %73, label %74, label %77

74:                                               ; preds = %61
  %75 = load i64, ptr %5, align 8, !tbaa !29
  %76 = sub i64 %75, 1
  br label %79

77:                                               ; preds = %61
  %78 = load i64, ptr %5, align 8, !tbaa !29
  br label %79

79:                                               ; preds = %77, %74
  %80 = phi i64 [ %76, %74 ], [ %78, %77 ]
  %81 = trunc i64 %80 to i32
  store i32 %81, ptr %12, align 4, !tbaa !25
  %82 = load i32, ptr %12, align 4, !tbaa !25
  %83 = sdiv i32 %82, 100
  store i32 %83, ptr %13, align 4, !tbaa !25
  %84 = load i32, ptr %12, align 4, !tbaa !25
  %85 = srem i32 %84, 100
  store i32 %85, ptr %14, align 4, !tbaa !25
  %86 = load i32, ptr %11, align 4, !tbaa !25
  %87 = mul i32 26, %86
  %88 = sub i32 %87, 2
  %89 = sdiv i32 %88, 10
  %90 = add i32 %89, 1
  %91 = load i32, ptr %14, align 4, !tbaa !25
  %92 = add i32 %90, %91
  %93 = load i32, ptr %14, align 4, !tbaa !25
  %94 = sdiv i32 %93, 4
  %95 = add i32 %92, %94
  %96 = load i32, ptr %13, align 4, !tbaa !25
  %97 = sdiv i32 %96, 4
  %98 = add i32 %95, %97
  %99 = load i32, ptr %13, align 4, !tbaa !25
  %100 = mul i32 2, %99
  %101 = sub i32 %98, %100
  %102 = srem i32 %101, 7
  store i32 %102, ptr %15, align 4, !tbaa !25
  %103 = load i32, ptr %15, align 4, !tbaa !25
  %104 = icmp slt i32 %103, 0
  br i1 %104, label %105, label %108

105:                                              ; preds = %79
  %106 = load i32, ptr %15, align 4, !tbaa !25
  %107 = add i32 %106, 7
  store i32 %107, ptr %15, align 4, !tbaa !25
  br label %108

108:                                              ; preds = %105, %79
  %109 = load ptr, ptr %4, align 8, !tbaa !18
  %110 = getelementptr inbounds nuw %struct._timelib_posix_trans_info, ptr %109, i32 0, i32 1
  %111 = getelementptr inbounds nuw %struct.anon.1, ptr %110, i32 0, i32 2
  %112 = load i32, ptr %111, align 4, !tbaa !21
  %113 = load i32, ptr %15, align 4, !tbaa !25
  %114 = sub i32 %112, %113
  store i32 %114, ptr %10, align 4, !tbaa !25
  %115 = load i32, ptr %10, align 4, !tbaa !25
  %116 = icmp slt i32 %115, 0
  br i1 %116, label %117, label %120

117:                                              ; preds = %108
  %118 = load i32, ptr %10, align 4, !tbaa !25
  %119 = add i32 %118, 7
  store i32 %119, ptr %10, align 4, !tbaa !25
  br label %120

120:                                              ; preds = %117, %108
  store i32 1, ptr %9, align 4, !tbaa !25
  br label %121

121:                                              ; preds = %147, %120
  %122 = load i32, ptr %9, align 4, !tbaa !25
  %123 = load ptr, ptr %4, align 8, !tbaa !18
  %124 = getelementptr inbounds nuw %struct._timelib_posix_trans_info, ptr %123, i32 0, i32 1
  %125 = getelementptr inbounds nuw %struct.anon.1, ptr %124, i32 0, i32 1
  %126 = load i32, ptr %125, align 4, !tbaa !21
  %127 = icmp slt i32 %122, %126
  br i1 %127, label %128, label %150

128:                                              ; preds = %121
  %129 = load i32, ptr %10, align 4, !tbaa !25
  %130 = add i32 %129, 7
  %131 = load i32, ptr %6, align 4, !tbaa !25
  %132 = sext i32 %131 to i64
  %133 = getelementptr inbounds [2 x [12 x i32]], ptr @month_lengths, i64 0, i64 %132
  %134 = load ptr, ptr %4, align 8, !tbaa !18
  %135 = getelementptr inbounds nuw %struct._timelib_posix_trans_info, ptr %134, i32 0, i32 1
  %136 = getelementptr inbounds nuw %struct.anon.1, ptr %135, i32 0, i32 0
  %137 = load i32, ptr %136, align 4, !tbaa !21
  %138 = sub i32 %137, 1
  %139 = sext i32 %138 to i64
  %140 = getelementptr inbounds [12 x i32], ptr %133, i64 0, i64 %139
  %141 = load i32, ptr %140, align 4, !tbaa !25
  %142 = icmp sge i32 %130, %141
  br i1 %142, label %143, label %144

143:                                              ; preds = %128
  br label %150

144:                                              ; preds = %128
  %145 = load i32, ptr %10, align 4, !tbaa !25
  %146 = add i32 %145, 7
  store i32 %146, ptr %10, align 4, !tbaa !25
  br label %147

147:                                              ; preds = %144
  %148 = load i32, ptr %9, align 4, !tbaa !25
  %149 = add i32 %148, 1
  store i32 %149, ptr %9, align 4, !tbaa !25
  br label %121

150:                                              ; preds = %143, %121
  %151 = load i32, ptr %10, align 4, !tbaa !25
  %152 = mul i32 %151, 86400
  %153 = sext i32 %152 to i64
  store i64 %153, ptr %16, align 8, !tbaa !29
  store i32 0, ptr %9, align 4, !tbaa !25
  br label %154

154:                                              ; preds = %174, %150
  %155 = load i32, ptr %9, align 4, !tbaa !25
  %156 = load ptr, ptr %4, align 8, !tbaa !18
  %157 = getelementptr inbounds nuw %struct._timelib_posix_trans_info, ptr %156, i32 0, i32 1
  %158 = getelementptr inbounds nuw %struct.anon.1, ptr %157, i32 0, i32 0
  %159 = load i32, ptr %158, align 4, !tbaa !21
  %160 = sub i32 %159, 1
  %161 = icmp slt i32 %155, %160
  br i1 %161, label %162, label %177

162:                                              ; preds = %154
  %163 = load i32, ptr %6, align 4, !tbaa !25
  %164 = sext i32 %163 to i64
  %165 = getelementptr inbounds [2 x [12 x i32]], ptr @month_lengths, i64 0, i64 %164
  %166 = load i32, ptr %9, align 4, !tbaa !25
  %167 = sext i32 %166 to i64
  %168 = getelementptr inbounds [12 x i32], ptr %165, i64 0, i64 %167
  %169 = load i32, ptr %168, align 4, !tbaa !25
  %170 = mul i32 %169, 86400
  %171 = sext i32 %170 to i64
  %172 = load i64, ptr %16, align 8, !tbaa !29
  %173 = add i64 %172, %171
  store i64 %173, ptr %16, align 8, !tbaa !29
  br label %174

174:                                              ; preds = %162
  %175 = load i32, ptr %9, align 4, !tbaa !25
  %176 = add i32 %175, 1
  store i32 %176, ptr %9, align 4, !tbaa !25
  br label %154

177:                                              ; preds = %154
  %178 = load i64, ptr %16, align 8, !tbaa !29
  store i64 %178, ptr %3, align 8
  store i32 1, ptr %8, align 4
  call void @llvm.lifetime.end.p0(i64 8, ptr %16) #5
  call void @llvm.lifetime.end.p0(i64 4, ptr %15) #5
  call void @llvm.lifetime.end.p0(i64 4, ptr %14) #5
  call void @llvm.lifetime.end.p0(i64 4, ptr %13) #5
  call void @llvm.lifetime.end.p0(i64 4, ptr %12) #5
  call void @llvm.lifetime.end.p0(i64 4, ptr %11) #5
  call void @llvm.lifetime.end.p0(i64 4, ptr %10) #5
  call void @llvm.lifetime.end.p0(i64 4, ptr %9) #5
  br label %180

179:                                              ; preds = %30
  store i64 0, ptr %3, align 8
  store i32 1, ptr %8, align 4
  br label %180

180:                                              ; preds = %179, %177, %55, %52
  call void @llvm.lifetime.end.p0(i64 4, ptr %6) #5
  %181 = load i64, ptr %3, align 8
  ret i64 %181
}