; Function Attrs: nofree norecurse nosync nounwind memory(argmem: read) uwtable
define internal fastcc i64 @calc_transition(ptr noundef readonly captures(none) %0, i64 noundef %1) unnamed_addr #6 {
  %3 = and i64 %1, 3
  %4 = icmp eq i64 %3, 0
  br i1 %4, label %5, label %10

5:                                                ; preds = %2
  %6 = srem i64 %1, 100
  %.not = icmp eq i64 %6, 0
  br i1 %.not, label %7, label %10

7:                                                ; preds = %5
  %8 = srem i64 %1, 400
  %9 = icmp eq i64 %8, 0
  br label %10

10:                                               ; preds = %5, %7, %2
  %11 = phi i1 [ false, %2 ], [ true, %5 ], [ %9, %7 ]
  %12 = load i32, ptr %0, align 4, !tbaa !22
  switch i32 %12, label %.loopexit [
    i32 1, label %13
    i32 2, label %21
    i32 3, label %26
  ]

13:                                               ; preds = %10
  %14 = getelementptr inbounds nuw i8, ptr %0, i64 4
  %15 = load i32, ptr %14, align 4, !tbaa !17
  %16 = add i32 %15, -1
  %17 = sext i32 %16 to i64
  %18 = icmp sgt i32 %15, 59
  %or.cond = select i1 %11, i1 %18, i1 false
  %19 = zext i1 %or.cond to i64
  %.044 = add nsw i64 %19, %17
  %20 = mul nsw i64 %.044, 86400
  br label %.loopexit

21:                                               ; preds = %10
  %22 = getelementptr inbounds nuw i8, ptr %0, i64 4
  %23 = load i32, ptr %22, align 4, !tbaa !17
  %24 = mul i32 %23, 86400
  %25 = sext i32 %24 to i64
  br label %.loopexit

26:                                               ; preds = %10
  %27 = getelementptr inbounds nuw i8, ptr %0, i64 4
  %28 = load i32, ptr %27, align 4, !tbaa !17
  %29 = add i32 %28, 9
  %30 = srem i32 %29, 12
  %31 = icmp slt i32 %28, 3
  %32 = sext i1 %31 to i64
  %33 = add i64 %1, %32
  %34 = trunc i64 %33 to i32
  %.neg = sdiv i32 %34, -100
  %35 = srem i32 %34, 100
  %36 = trunc nsw i32 %30 to i16
  %37 = mul nsw i16 %36, 26
  %.lhs.trunc = add nsw i16 %37, 24
  %38 = sdiv i16 %.lhs.trunc, 10
  %narrow = add nsw i16 %38, 1
  %39 = sext i16 %narrow to i32
  %.lhs.trunc55 = trunc nsw i32 %35 to i8
  %40 = sdiv i8 %.lhs.trunc55, 4
  %.sext56 = sext i8 %40 to i32
  %41 = sdiv i32 %34, 400
  %.neg53 = shl nsw i32 %.neg, 1
  %42 = add nsw i32 %41, %35
  %43 = add nsw i32 %42, %.neg53
  %44 = add nsw i32 %43, %39
  %45 = add nsw i32 %44, %.sext56
  %46 = srem i32 %45, 7
  %47 = icmp slt i32 %46, 0
  %48 = add nsw i32 %46, 7
  %spec.select = select i1 %47, i32 %48, i32 %46
  %49 = getelementptr inbounds nuw i8, ptr %0, i64 12
  %50 = load i32, ptr %49, align 4, !tbaa !17
  %51 = sub i32 %50, %spec.select
  %52 = icmp slt i32 %51, 0
  %53 = add nsw i32 %51, 7
  %.046 = select i1 %52, i32 %53, i32 %51
  %54 = getelementptr inbounds nuw i8, ptr %0, i64 8
  %55 = load i32, ptr %54, align 4, !tbaa !17
  %56 = icmp sgt i32 %55, 1
  br i1 %56, label %.lr.ph, label %.._crit_edge_crit_edge

.._crit_edge_crit_edge:                           ; preds = %26
  %.pre = add i32 %28, -1
  br label %._crit_edge

.lr.ph:                                           ; preds = %26
  %57 = zext i1 %11 to i64
  %58 = add i32 %28, -1
  %59 = sext i32 %58 to i64
  %60 = getelementptr inbounds [2 x [12 x i32]], ptr @month_lengths, i64 0, i64 %57, i64 %59
  %61 = load i32, ptr %60, align 4, !tbaa !39
  %62 = mul i32 %55, 7
  %63 = add i32 %.046, %62
  %64 = add i32 %63, -7
  br label %67

65:                                               ; preds = %67
  %66 = add nuw nsw i32 %.04558, 1
  %exitcond.not = icmp eq i32 %66, %55
  br i1 %exitcond.not, label %._crit_edge, label %67

67:                                               ; preds = %.lr.ph, %65
  %.04558 = phi i32 [ 1, %.lr.ph ], [ %66, %65 ]
  %.14757 = phi i32 [ %.046, %.lr.ph ], [ %68, %65 ]
  %68 = add i32 %.14757, 7
  %.not54 = icmp slt i32 %68, %61
  br i1 %.not54, label %65, label %._crit_edge

._crit_edge:                                      ; preds = %65, %67, %.._crit_edge_crit_edge
  %.pre-phi = phi i32 [ %.pre, %.._crit_edge_crit_edge ], [ %58, %67 ], [ %58, %65 ]
  %.147.lcssa = phi i32 [ %.046, %.._crit_edge_crit_edge ], [ %64, %65 ], [ %.14757, %67 ]
  %69 = mul i32 %.147.lcssa, 86400
  %70 = sext i32 %69 to i64
  %71 = icmp sgt i32 %.pre-phi, 0
  br i1 %71, label %.lr.ph64, label %.loopexit

.lr.ph64:                                         ; preds = %._crit_edge
  %72 = zext i1 %11 to i64
  %wide.trip.count = zext nneg i32 %.pre-phi to i64
  br label %73

73:                                               ; preds = %.lr.ph64, %73
  %indvars.iv = phi i64 [ 0, %.lr.ph64 ], [ %indvars.iv.next, %73 ]
  %.062 = phi i64 [ %70, %.lr.ph64 ], [ %78, %73 ]
  %74 = getelementptr inbounds nuw [2 x [12 x i32]], ptr @month_lengths, i64 0, i64 %72, i64 %indvars.iv
  %75 = load i32, ptr %74, align 4, !tbaa !39
  %76 = mul i32 %75, 86400
  %77 = sext i32 %76 to i64
  %78 = add i64 %.062, %77
  %indvars.iv.next = add nuw nsw i64 %indvars.iv, 1
  %exitcond67.not = icmp eq i64 %indvars.iv.next, %wide.trip.count
  br i1 %exitcond67.not, label %.loopexit, label %73

.loopexit:                                        ; preds = %73, %._crit_edge, %10, %21, %13
  %.043 = phi i64 [ %25, %21 ], [ %20, %13 ], [ 0, %10 ], [ %70, %._crit_edge ], [ %78, %73 ]
  ret i64 %.043
}